Certificate:
    Data:
        Version: 3 (0x2)
        Serial Number: 4660 (0x1234)
    Signature Algorithm: sha256WithRSAEncryption
        Issuer: C=ES, ST=Spain, L=Madrid, O=Red Hat/emailAddress=larizmen@redhat.com
        Validity
            Not Before: Aug 13 13:51:27 2018 GMT
            Not After : Aug 10 13:51:27 2028 GMT
        Subject: CN=10.1.1.10
        Subject Public Key Info:
            Public Key Algorithm: rsaEncryption
                Public-Key: (2048 bit)
                Modulus:
                    00:eb:b2:fb:a4:e7:63:17:39:16:17:6e:2b:6c:0f:
                    ee:b7:68:21:50:cb:97:eb:92:8b:47:85:12:36:36:
                    4d:fb:0b:83:90:ac:ed:d5:e9:b7:b4:3f:68:84:e6:
                    c2:94:63:f5:80:b9:9e:cc:96:f0:c5:ac:88:e6:b8:
                    db:19:6e:00:3f:9c:34:4f:9c:ae:78:dc:05:c1:31:
                    4e:35:43:a1:3d:1a:90:b8:40:bc:4a:a8:58:f0:62:
                    f9:63:d1:1d:60:b4:6f:9b:6e:f8:da:f6:e9:8b:90:
                    89:0e:26:05:40:76:ca:8b:f1:1a:20:0f:64:2a:54:
                    88:b3:27:1f:33:78:88:ed:ab:af:56:37:b2:4f:93:
                    19:0d:cb:0f:28:41:a1:d0:10:f7:7f:2d:96:e1:e9:
                    2a:bd:14:cd:7b:ac:8a:c7:e4:38:ff:ae:1a:71:c0:
                    24:ee:90:e0:b7:c5:ad:9c:de:da:a6:d6:8b:9c:d6:
                    3d:9e:63:37:ea:10:93:30:3f:d2:51:e2:ad:d4:df:
                    b8:95:f9:49:79:73:8c:ac:23:0b:f1:68:d6:32:1e:
                    03:22:6f:12:65:55:c1:02:80:7a:20:3d:e4:99:ed:
                    40:04:bb:e0:0a:97:19:5f:d3:1d:b2:18:cb:88:49:
                    62:12:b6:ee:79:d5:9c:5b:63:69:de:22:71:4a:c2:
                    2d:6b
                Exponent: 65537 (0x10001)
        X509v3 extensions:
            X509v3 Basic Constraints:
                CA:FALSE
            X509v3 Key Usage:
                Digital Signature, Non Repudiation, Key Encipherment
            X509v3 Subject Alternative Name:
                IP Address:10.1.1.10, DNS:10.1.1.10
    Signature Algorithm: sha256WithRSAEncryption
         36:55:04:5a:fb:f9:98:4b:c8:9f:96:7b:ce:90:b9:0e:63:4b:
         29:b6:80:9c:c2:24:52:c7:e2:3b:d2:f8:b7:6b:12:70:81:5f:
         8f:6d:ad:c9:92:fa:a6:37:99:d3:e4:d0:a5:5e:04:e2:d9:ea:
         37:41:b6:68:3c:e2:f2:9b:c3:c7:ed:33:a0:a3:fa:32:cd:05:
         73:38:e3:ad:0f:25:f3:92:04:50:b3:cd:08:79:87:bf:f7:af:
         c4:46:db:f9:6d:3d:bc:f0:5c:2e:c0:f5:76:b2:74:25:18:3d:
         bb:5f:eb:da:78:21:ca:ee:0d:76:5d:a2:57:31:a5:44:c4:95:
         6f:44:f7:b1:5e:2f:75:a8:46:3b:85:55:8a:d5:46:9a:b3:e1:
         a5:d9:98:63:66:fe:cd:22:8e:cd:39:ae:5d:96:02:32:8c:cd:
         d2:d3:62:9f:2d:82:f3:06:6d:44:11:0e:03:ff:6d:72:3c:24:
         53:43:45:64:5f:31:84:84:cb:74:0e:ba:22:19:22:ba:e8:8f:
         d7:c1:12:86:6e:e6:71:2f:ac:e9:48:89:86:37:62:6d:c8:c3:
         b8:6a:a2:71:d2:a7:c6:f0:bf:94:32:17:df:5a:46:29:cb:c7:
         50:1f:11:81:3e:80:a4:e2:96:14:56:3d:6b:b6:54:18:04:c8:
         e4:5c:b9:3d:0e:86:6b:40:e8:4b:3d:66:10:2e:e8:2a:b7:c2:
         45:f6:46:84:5c:fb:95:ec:7f:07:c4:59:bb:88:5a:bf:b0:06:
         40:3f:08:e4:c2:96:e5:fd:1e:21:f0:47:e3:4c:ae:cc:95:bf:
         f9:3a:cc:d5:f1:ac:a3:b2:0b:7f:2b:9c:16:b7:88:2b:bb:8a:
         37:05:fa:0c:bb:ff:f0:81:ca:eb:f4:0e:3a:ea:e9:c8:cf:99:
         69:d0:12:97:f4:dc:0e:9e:e4:d4:af:25:b6:9f:21:5a:91:e3:
         a1:d8:ab:6b:20:fc:f8:de:04:70:66:ad:2a:b1:5c:b9:8a:ba:
         d4:39:e2:63:41:0a:77:34:16:38:4b:61:12:f8:55:f5:9a:2c:
         5f:ab:89:ac:c7:e0:72:35:23:20:1b:1e:b3:59:cc:9b:13:63:
         8b:51:9a:17:3e:fa:0c:7b:74:6b:ca:1f:a5:d6:eb:02:08:c3:
         10:61:21:11:cb:54:b0:ee:7a:da:78:b4:62:52:2e:18:ba:ff:
         1d:01:86:de:5c:8b:ed:89:5e:63:d4:f0:06:5b:40:ba:88:c4:
         5e:39:d9:2f:79:b3:15:d5:53:70:2d:46:6e:f9:71:ca:87:a5:
         9a:ca:95:78:01:19:3a:8d:1d:95:a3:b2:2b:c8:fb:50:db:a9:
         29:4d:b2:97:56:eb:1f:93
-----BEGIN CERTIFICATE-----
MIIEKjCCAhKgAwIBAgICEjQwDQYJKoZIhvcNAQELBQAwZDELMAkGA1UEBhMCRVMx
DjAMBgNVBAgMBVNwYWluMQ8wDQYDVQQHDAZNYWRyaWQxEDAOBgNVBAoMB1JlZCBI
YXQxIjAgBgkqhkiG9w0BCQEWE2xhcml6bWVuQHJlZGhhdC5jb20wHhcNMTgwODEz
MTM1MTI3WhcNMjgwODEwMTM1MTI3WjAUMRIwEAYDVQQDDAkxMC4xLjEuMTAwggEi
MA0GCSqGSIb3DQEBAQUAA4IBDwAwggEKAoIBAQDrsvuk52MXORYXbitsD+63aCFQ
y5frkotHhRI2Nk37C4OQrO3V6be0P2iE5sKUY/WAuZ7MlvDFrIjmuNsZbgA/nDRP
nK543AXBMU41Q6E9GpC4QLxKqFjwYvlj0R1gtG+bbvja9umLkIkOJgVAdsqL8Rog
D2QqVIizJx8zeIjtq69WN7JPkxkNyw8oQaHQEPd/LZbh6Sq9FM17rIrH5Dj/rhpx
wCTukOC3xa2c3tqm1ouc1j2eYzfqEJMwP9JR4q3U37iV+Ul5c4ysIwvxaNYyHgMi
bxJlVcECgHogPeSZ7UAEu+AKlxlf0x2yGMuISWIStu551ZxbY2neInFKwi1rAgMB
AAGjNjA0MAkGA1UdEwQCMAAwCwYDVR0PBAQDAgXgMBoGA1UdEQQTMBGHBAoBAQqC
CTEwLjEuMS4xMDANBgkqhkiG9w0BAQsFAAOCAgEANlUEWvv5mEvIn5Z7zpC5DmNL
KbaAnMIkUsfiO9L4t2sScIFfj22tyZL6pjeZ0+TQpV4E4tnqN0G2aDzi8pvDx+0z
oKP6Ms0FczjjrQ8l85IEULPNCHmHv/evxEbb+W09vPBcLsD1drJ0JRg9u1/r2ngh
yu4Ndl2iVzGlRMSVb0T3sV4vdahGO4VVitVGmrPhpdmYY2b+zSKOzTmuXZYCMozN
0tNiny2C8wZtRBEOA/9tcjwkU0NFZF8xhITLdA66IhkiuuiP18EShm7mcS+s6UiJ
hjdibcjDuGqicdKnxvC/lDIX31pGKcvHUB8RgT6ApOKWFFY9a7ZUGATI5Fy5PQ6G
a0DoSz1mEC7oKrfCRfZGhFz7lex/B8RZu4hav7AGQD8I5MKW5f0eIfBH40yuzJW/
+TrM1fGso7ILfyucFreIK7uKNwX6DLv/8IHK6/QOOurpyM+ZadASl/TcDp7k1K8l
tp8hWpHjodirayD8+N4EcGatKrFcuYq61DniY0EKdzQWOEthEvhV9ZosX6uJrMfg
cjUjIBses1nMmxNji1GaFz76DHt0a8ofpdbrAgjDEGEhEctUsO562ni0YlIuGLr/
HQGG3lyL7YleY9TwBltAuojEXjnZL3mzFdVTcC1GbvlxyoelmsqVeAEZOo0dlaOy
K8j7UNupKU2yl1brH5M=
-----END CERTIFICATE-----
