Certificate:
    Data:
        Version: 3 (0x2)
        Serial Number: 4660 (0x1234)
        Signature Algorithm: sha256WithRSAEncryption
        Issuer: C=ES, ST=Spain, L=Madrid, O=Red Hat/emailAddress=larizmen@redhat.com
        Validity
            Not Before: Apr  2 12:26:26 2019 GMT
            Not After : Mar 30 12:26:26 2029 GMT
        Subject: CN=10.233.69.18
        Subject Public Key Info:
            Public Key Algorithm: rsaEncryption
                RSA Public-Key: (2048 bit)
                Modulus:
                    00:a8:fc:2e:f6:c3:4e:a9:95:65:78:a7:d2:99:2c:
                    98:40:8a:08:8f:dc:1e:73:2e:bb:a8:b6:38:7f:17:
                    e3:58:8d:a9:86:54:79:4c:1b:af:bf:8c:ca:b7:a2:
                    22:b2:c2:15:86:9d:55:89:3e:66:26:64:dc:6c:cc:
                    65:a6:56:b6:10:fa:12:34:9e:bf:3e:2f:02:d2:dc:
                    fd:5c:94:56:15:d3:cd:92:57:eb:c5:fb:40:69:3e:
                    14:9f:f6:cd:22:58:ec:cd:8a:7d:d5:f8:df:c5:b2:
                    8b:c1:7d:c6:0b:31:88:c5:b5:3f:d4:f7:b8:ed:b3:
                    fc:8b:db:d0:5b:e4:0f:89:37:32:91:ac:a6:2d:a0:
                    a5:dd:67:36:69:01:3f:4f:fd:00:fb:ba:fc:ec:dd:
                    9b:10:33:2a:99:5d:33:23:b1:41:f8:48:e7:f5:78:
                    2e:2b:39:0d:e3:d8:63:2a:0c:64:67:88:42:fd:33:
                    20:fc:f1:f4:26:d8:79:f9:ee:27:20:2e:83:32:11:
                    2c:b0:4b:7a:31:6d:c2:b6:23:a7:a1:ec:0b:61:2f:
                    c2:71:36:49:56:96:2d:02:c7:d7:58:6f:7a:7a:2f:
                    3c:03:ad:e0:c8:69:cd:17:e6:70:c1:4b:d7:9a:e6:
                    0b:9d:a3:2b:c3:09:d5:92:4c:bf:90:27:f9:d1:f1:
                    76:4f
                Exponent: 65537 (0x10001)
        X509v3 extensions:
            X509v3 Basic Constraints: 
                CA:FALSE
            X509v3 Key Usage: 
                Digital Signature, Non Repudiation, Key Encipherment
            X509v3 Subject Alternative Name: 
                IP Address:10.233.69.18, DNS:10.233.69.18, DNS:osp-nonexp.mgmt.pigsty.nsc.no
    Signature Algorithm: sha256WithRSAEncryption
         b6:b0:a5:1d:25:03:97:1a:50:3c:01:bd:21:8b:76:46:4d:67:
         88:f7:a0:c3:e9:9d:19:8b:d6:fe:b6:51:f8:ff:d1:69:f3:34:
         01:b0:69:75:1c:17:04:08:8e:12:2f:63:ab:76:b3:05:a4:d8:
         57:bd:97:49:37:5a:04:76:2b:0e:64:85:21:86:c5:d1:7f:3c:
         8e:1f:a5:db:0c:c1:6d:4e:1c:e0:86:04:01:c8:a2:1d:7b:50:
         4c:75:ae:6d:5a:66:ae:89:1e:2b:e2:24:cd:7a:d8:4a:22:df:
         d7:51:31:c3:4a:c9:9a:53:37:39:4f:e8:fc:5b:c2:ed:f2:c1:
         8f:dd:0c:82:82:61:dc:a3:f8:df:62:cf:be:4f:f4:d3:88:bd:
         92:c0:f6:47:13:d5:62:96:f0:77:fa:ed:6f:b6:88:f3:91:4a:
         0f:8c:d4:e7:73:fa:b1:62:77:ed:41:ac:ab:47:49:f2:d2:17:
         63:a2:4d:a0:83:8c:da:98:6e:f6:bf:65:95:39:b7:ff:f2:26:
         41:2a:b1:92:36:34:e4:a7:33:bf:69:7e:65:8a:36:cc:c5:b1:
         ba:7c:bc:09:3c:f7:ab:d2:77:2b:e1:29:f7:40:8d:16:db:05:
         64:85:d3:ed:1a:5c:40:3b:09:1c:d1:4a:c3:d3:17:fe:34:54:
         e3:e4:b4:59:c7:b1:10:9a:d2:6b:23:34:4d:4f:7f:22:a3:7f:
         36:ab:24:61:a9:4a:3b:c4:0c:be:41:e7:6a:2a:1b:ca:2b:85:
         33:7a:34:32:91:1f:20:dc:74:6f:6b:4d:e7:5f:49:95:44:31:
         8e:99:6a:9b:72:cf:c2:db:6c:3e:4b:41:c6:9f:4c:ac:c5:32:
         e0:f7:24:e5:b7:fb:d3:fe:2b:64:44:dc:68:99:e2:d6:28:80:
         2d:0c:41:04:96:cf:1b:58:d2:ad:6c:43:ea:de:b0:5f:44:53:
         d1:d5:89:03:53:bd:7d:d3:f1:c1:8e:a4:93:7e:6c:9a:ed:7b:
         b8:9e:6d:32:e4:a9:13:20:83:25:6f:03:0a:20:ef:8c:e8:ae:
         ae:a5:7e:87:c0:31:e0:7c:f9:5a:12:9c:fd:41:de:b7:90:76:
         0f:c9:59:57:f5:55:82:5b:b9:53:5f:38:55:00:19:22:7e:c5:
         0c:83:1b:d9:dd:90:69:41:9c:7d:bb:53:ff:d3:bd:c3:47:11:
         70:75:65:88:91:66:d7:e8:6d:a5:c8:d1:7c:bb:71:ab:4e:8f:
         4e:bd:69:33:49:d7:f6:2f:75:66:79:94:29:74:df:90:09:6d:
         69:0a:5c:75:8a:a5:94:f9:f7:e0:9e:2e:a6:c0:a0:b4:6a:a3:
         7d:57:bb:67:80:cf:19:5d
-----BEGIN CERTIFICATE-----
MIIETzCCAjegAwIBAgICEjQwDQYJKoZIhvcNAQELBQAwZDELMAkGA1UEBhMCRVMx
DjAMBgNVBAgMBVNwYWluMQ8wDQYDVQQHDAZNYWRyaWQxEDAOBgNVBAoMB1JlZCBI
YXQxIjAgBgkqhkiG9w0BCQEWE2xhcml6bWVuQHJlZGhhdC5jb20wHhcNMTkwNDAy
MTIyNjI2WhcNMjkwMzMwMTIyNjI2WjAXMRUwEwYDVQQDDAwxMC4yMzMuNjkuMTgw
ggEiMA0GCSqGSIb3DQEBAQUAA4IBDwAwggEKAoIBAQCo/C72w06plWV4p9KZLJhA
igiP3B5zLruotjh/F+NYjamGVHlMG6+/jMq3oiKywhWGnVWJPmYmZNxszGWmVrYQ
+hI0nr8+LwLS3P1clFYV082SV+vF+0BpPhSf9s0iWOzNin3V+N/FsovBfcYLMYjF
tT/U97jts/yL29Bb5A+JNzKRrKYtoKXdZzZpAT9P/QD7uvzs3ZsQMyqZXTMjsUH4
SOf1eC4rOQ3j2GMqDGRniEL9MyD88fQm2Hn57icgLoMyESywS3oxbcK2I6eh7Ath
L8JxNklWli0Cx9dYb3p6LzwDreDIac0X5nDBS9ea5gudoyvDCdWSTL+QJ/nR8XZP
AgMBAAGjWDBWMAkGA1UdEwQCMAAwCwYDVR0PBAQDAgXgMDwGA1UdEQQ1MDOHBArp
RRKCDDEwLjIzMy42OS4xOIIdb3NwLW5vbmV4cC5tZ210LnBpZ3N0eS5uc2Mubm8w
DQYJKoZIhvcNAQELBQADggIBALawpR0lA5caUDwBvSGLdkZNZ4j3oMPpnRmL1v62
Ufj/0WnzNAGwaXUcFwQIjhIvY6t2swWk2Fe9l0k3WgR2Kw5khSGGxdF/PI4fpdsM
wW1OHOCGBAHIoh17UEx1rm1aZq6JHiviJM162Eoi39dRMcNKyZpTNzlP6Pxbwu3y
wY/dDIKCYdyj+N9iz75P9NOIvZLA9kcT1WKW8Hf67W+2iPORSg+M1Odz+rFid+1B
rKtHSfLSF2OiTaCDjNqYbva/ZZU5t//yJkEqsZI2NOSnM79pfmWKNszFsbp8vAk8
96vSdyvhKfdAjRbbBWSF0+0aXEA7CRzRSsPTF/40VOPktFnHsRCa0msjNE1PfyKj
fzarJGGpSjvEDL5B52oqG8orhTN6NDKRHyDcdG9rTedfSZVEMY6Zaptyz8LbbD5L
QcafTKzFMuD3JOW3+9P+K2RE3GiZ4tYogC0MQQSWzxtY0q1sQ+resF9EU9HViQNT
vX3T8cGOpJN+bJrte7iebTLkqRMggyVvAwog74zorq6lfofAMeB8+VoSnP1B3reQ
dg/JWVf1VYJbuVNfOFUAGSJ+xQyDG9ndkGlBnH27U//TvcNHEXB1ZYiRZtfobaXI
0Xy7catOj069aTNJ1/YvdWZ5lCl035AJbWkKXHWKpZT59+CeLqbAoLRqo31Xu2eA
zxld
-----END CERTIFICATE-----
